; Function Attrs: nounwind uwtable
define dso_local void @pgstat_slru_snapshot_cb() local_unnamed_addr #0 {
  %1 = load ptr, ptr @pgStatLocal, align 8
  %2 = getelementptr inbounds nuw i8, ptr %1, i64 49856
  %3 = tail call zeroext i1 @LWLockAcquire(ptr noundef nonnull %2, i32 noundef 1) #9
  %4 = getelementptr inbounds nuw i8, ptr %1, i64 49872
  tail call void @llvm.memcpy.p0.p0.i64(ptr noundef nonnull align 8 dereferenceable(512) getelementptr inbounds nuw (i8, ptr @pgStatLocal, i64 49280), ptr noundef nonnull align 8 dereferenceable(512) %4, i64 512, i1 false)
  tail call void @LWLockRelease(ptr noundef nonnull %2) #9
  ret void
}